target datalayout = "e-m:e-p270:32:32-p271:32:32-p272:64:64-i64:64-i128:128-f80:128-n8:16:32:64-S128"
target triple = "x86_64-pc-linux-gnu"

%"struct.faiss::IndexNNDescent" = type { %"struct.faiss::Index.base", %"struct.faiss::NNDescent", i8, ptr }
%"struct.faiss::Index.base" = type <{ ptr, i32, [4 x i8], i64, i8, i8, [2 x i8], i32, float }>
%"struct.faiss::NNDescent" = type { i8, i32, i32, i32, i32, i32, i32, i32, i32, i32, %"class.std::vector", %"class.std::vector.0" }
%"class.std::vector" = type { %"struct.std::_Vector_base" }
%"struct.std::_Vector_base" = type { %"struct.std::_Vector_base<faiss::nndescent::Nhood, std::allocator<faiss::nndescent::Nhood>>::_Vector_impl" }
%"struct.std::_Vector_base<faiss::nndescent::Nhood, std::allocator<faiss::nndescent::Nhood>>::_Vector_impl" = type { %"struct.std::_Vector_base<faiss::nndescent::Nhood, std::allocator<faiss::nndescent::Nhood>>::_Vector_impl_data" }
%"struct.std::_Vector_base<faiss::nndescent::Nhood, std::allocator<faiss::nndescent::Nhood>>::_Vector_impl_data" = type { ptr, ptr, ptr }
%"class.std::vector.0" = type { %"struct.std::_Vector_base.1" }
%"struct.std::_Vector_base.1" = type { %"struct.std::_Vector_base<int, std::allocator<int>>::_Vector_impl" }
%"struct.std::_Vector_base<int, std::allocator<int>>::_Vector_impl" = type { %"struct.std::_Vector_base<int, std::allocator<int>>::_Vector_impl_data" }
%"struct.std::_Vector_base<int, std::allocator<int>>::_Vector_impl_data" = type { ptr, ptr, ptr }
%"struct.faiss::Index" = type <{ ptr, i32, [4 x i8], i64, i8, i8, [2 x i8], i32, float, [4 x i8] }>

@_ZTVN5faiss5IndexE = external unnamed_addr constant { [24 x ptr] }, align 8

; Function Attrs: mustprogress nounwind uwtable
define linkonce_odr void @_ZN5faiss5IndexC2ElNS_10MetricTypeE(ptr noundef nonnull align 8 dereferenceable(36) %0, i64 noundef %1, i32 noundef %2) unnamed_addr #0 comdat align 2 {
  %4 = alloca ptr, align 8
  %5 = alloca i64, align 8
  %6 = alloca i32, align 4
  store ptr %0, ptr %4, align 8
  store i64 %1, ptr %5, align 8
  store i32 %2, ptr %6, align 4
  %7 = load ptr, ptr %4, align 8
  store ptr getelementptr inbounds ({ [24 x ptr] }, ptr @_ZTVN5faiss5IndexE, i32 0, i32 0, i32 2), ptr %7, align 8
  %8 = getelementptr inbounds %"struct.faiss::Index", ptr %7, i32 0, i32 1
  %9 = load i64, ptr %5, align 8
  %10 = trunc i64 %9 to i32
  store i32 %10, ptr %8, align 8
  %11 = getelementptr inbounds %"struct.faiss::Index", ptr %7, i32 0, i32 3
  store i64 0, ptr %11, align 8
  %12 = getelementptr inbounds %"struct.faiss::Index", ptr %7, i32 0, i32 4
  store i8 0, ptr %12, align 8
  %13 = getelementptr inbounds %"struct.faiss::Index", ptr %7, i32 0, i32 5
  store i8 1, ptr %13, align 1
  %14 = getelementptr inbounds %"struct.faiss::Index", ptr %7, i32 0, i32 7
  %15 = load i32, ptr %6, align 4
  store i32 %15, ptr %14, align 4
  %16 = getelementptr inbounds %"struct.faiss::Index", ptr %7, i32 0, i32 8
  store float 0.000000e+00, ptr %16, align 8
  ret void
}

; Function Attrs: mustprogress uwtable
define void @_ZN5faiss14IndexNNDescentC2EiiNS_10MetricTypeE(ptr noundef nonnull align 8 dereferenceable(144) %0, i32 noundef %1, i32 noundef %2, i32 noundef %3) unnamed_addr #1 align 2 personality ptr @__gxx_personality_v0 {
  %5 = alloca ptr, align 8
  %6 = alloca i32, align 4
  %7 = alloca i32, align 4
  %8 = alloca i32, align 4
  %9 = alloca ptr, align 8
  %10 = alloca i32, align 4
  store ptr %0, ptr %5, align 8
  store i32 %1, ptr %6, align 4
  store i32 %2, ptr %7, align 4
  store i32 %3, ptr %8, align 4
  %11 = load ptr, ptr %5, align 8
  %12 = load i32, ptr %6, align 4
  %13 = sext i32 %12 to i64
  %14 = load i32, ptr %8, align 4
  call void @_ZN5faiss5IndexC2ElNS_10MetricTypeE(ptr noundef nonnull align 8 dereferenceable(36) %11, i64 noundef %13, i32 noundef %14)
  store ptr getelementptr inbounds ({ [24 x ptr] }, ptr @_ZTVN5faiss14IndexNNDescentE, i32 0, i32 0, i32 2), ptr %11, align 8
  %15 = getelementptr inbounds %"struct.faiss::IndexNNDescent", ptr %11, i32 0, i32 1
  %16 = load i32, ptr %6, align 4
  %17 = load i32, ptr %7, align 4
  invoke void @_ZN5faiss9NNDescentC1Eii(ptr noundef nonnull align 8 dereferenceable(88) %15, i32 noundef %16, i32 noundef %17)
          to label %18 unwind label %21

18:                                               ; preds = %4
  %19 = getelementptr inbounds %"struct.faiss::IndexNNDescent", ptr %11, i32 0, i32 2
  store i8 0, ptr %19, align 8
  %20 = getelementptr inbounds %"struct.faiss::IndexNNDescent", ptr %11, i32 0, i32 3
  store ptr null, ptr %20, align 8
  ret void

21:                                               ; preds = %4
  %22 = landingpad { ptr, i32 }
          cleanup
  %23 = extractvalue { ptr, i32 } %22, 0
  store ptr %23, ptr %9, align 8
  %24 = extractvalue { ptr, i32 } %22, 1
  store i32 %24, ptr %10, align 4
  call void @_ZN5faiss5IndexD2Ev(ptr noundef nonnull align 8 dereferenceable(36) %11) #7
  br label %25

25:                                               ; preds = %21
  %26 = load ptr, ptr %9, align 8
  %27 = load i32, ptr %10, align 4
  %28 = insertvalue { ptr, i32 } poison, ptr %26, 0
  %29 = insertvalue { ptr, i32 } %28, i32 %27, 1
  resume { ptr, i32 } %29
}

; Function Attrs: mustprogress uwtable
define void @_ZN5faiss18IndexNNDescentFlatC2Ev(ptr noundef nonnull align 8 dereferenceable(144) %0) unnamed_addr #1 align 2 {
  %2 = alloca ptr, align 8
  store ptr %0, ptr %2, align 8
  %3 = load ptr, ptr %2, align 8
  call void @_ZN5faiss14IndexNNDescentC2EiiNS_10MetricTypeE(ptr noundef nonnull align 8 dereferenceable(144) %3, i32 noundef 0, i32 noundef 32, i32 noundef 1)
  store ptr getelementptr inbounds ({ [24 x ptr] }, ptr @_ZTVN5faiss18IndexNNDescentFlatE, i32 0, i32 0, i32 2), ptr %3, align 8
  %4 = getelementptr inbounds %"struct.faiss::Index", ptr %3, i32 0, i32 5
  store i8 1, ptr %4, align 1
  ret void
}